target datalayout = "e-m:e-p270:32:32-p271:32:32-p272:64:64-i64:64-i128:128-f80:128-n8:16:32:64-S128"
target triple = "x86_64-unknown-linux-gnu"

%class.rational = type { %class.mpq }
%class.mpq = type { %class.mpz, %class.mpz }
%class.mpz = type { i32, i8, ptr }
%"class.nra::solver" = type { ptr }
%"struct.nra::solver::imp" = type { ptr, ptr, %class.params_ref, %class.u_map, %class.indexed_uint_set, %class.scoped_ptr, %class.scoped_ptr.0, %class.scoped_ptr.1, %class.scoped_ptr.1, ptr, %class.indexed_uint_set, %class.indexed_uint_set }
%class.params_ref = type { ptr }
%class.u_map = type { %class.map }
%class.map = type { %class.table2map }
%class.table2map = type { %class.core_hashtable }
%class.core_hashtable = type <{ ptr, i32, i32, i32, [4 x i8] }>
%class.scoped_ptr = type { ptr }
%class.scoped_ptr.0 = type { ptr }
%class.scoped_ptr.1 = type { ptr }
%class.indexed_uint_set = type { i32, %class.svector, %class.svector }
%class.svector = type { %class.vector }
%class.vector = type { ptr }
%class.region = type { ptr, ptr, ptr, ptr, ptr }
%"class.nla::core" = type { i32, i32, %"class.nla::var_eqs", ptr, ptr, %struct.smt_params_helper, %"class.std::function.104", %class.vector.107, %class.vector.108, %class.vector.109, %class.vector.110, %class.indexed_uint_set, %class.indexed_uint_set, %"struct.nla::tangents", %"struct.nla::basics", %"class.nla::order", %"class.nla::monotone", %"class.nla::powers", %"class.nla::divisions", %"class.nla::intervals", %"class.nla::monomial_bounds", i32, i8, [3 x i8], %"class.nla::horner", %"class.nla::grobner", %"class.nla::emonics", %class.svector, %class.indexed_uint_set, %class.reslimit, i8, %"class.nra::solver", i8, i32, ptr }
%"class.nla::var_eqs" = type { ptr, %class.union_find, %"class.lp::incremental_vector", %class.vector.97, %class.trail_stack, %class.svector.98, %class.svector.100, %class.svector, %class.svector.102, %"struct.nla::var_eqs<nla::emonics>::stats" }
%class.union_find = type { ptr, ptr, %class.svector, %class.svector, %class.svector, %"class.union_find<nla::var_eqs<nla::emonics>>::mk_var_trail" }
%"class.union_find<nla::var_eqs<nla::emonics>>::mk_var_trail" = type { %class.trail, ptr }
%class.trail = type { ptr }
%"class.lp::incremental_vector" = type { %class.vector.12, %class.vector.96 }
%class.vector.12 = type { ptr }
%class.vector.96 = type { ptr }
%class.vector.97 = type { ptr }
%class.trail_stack = type { %class.ptr_vector, %class.svector, %class.region }
%class.ptr_vector = type { %class.vector.2 }
%class.vector.2 = type { ptr }
%class.svector.98 = type { %class.vector.99 }
%class.vector.99 = type { ptr }
%class.svector.100 = type { %class.vector.101 }
%class.vector.101 = type { ptr }
%class.svector.102 = type { %class.vector.103 }
%class.vector.103 = type { ptr }
%"struct.nla::var_eqs<nla::emonics>::stats" = type { i32, i32 }
%struct.smt_params_helper = type { ptr, %class.params_ref }
%"class.std::function.104" = type { %"class.std::_Function_base", ptr }
%"class.std::_Function_base" = type { %"union.std::_Any_data", ptr }
%"union.std::_Any_data" = type { %"union.std::_Nocopy_types" }
%"union.std::_Nocopy_types" = type { { i64, i64 } }
%class.vector.107 = type { ptr }
%class.vector.108 = type { ptr }
%class.vector.109 = type { ptr }
%class.vector.110 = type { ptr }
%"struct.nla::tangents" = type { %"struct.nla::common" }
%"struct.nla::common" = type { ptr, %"class.nla::nex_creator" }
%"class.nla::nex_creator" = type { %class.ptr_vector.111, %"class.std::unordered_map.113", %"class.std::unordered_map", %class.svector, %"class.nla::nex_creator::mul_factory" }
%class.ptr_vector.111 = type { %class.vector.112 }
%class.vector.112 = type { ptr }
%"class.std::unordered_map.113" = type { %"class.std::_Hashtable.114" }
%"class.std::_Hashtable.114" = type { ptr, i64, %"struct.std::__detail::_Hash_node_base", i64, %"struct.std::__detail::_Prime_rehash_policy", ptr }
%"struct.std::__detail::_Hash_node_base" = type { ptr }
%"struct.std::__detail::_Prime_rehash_policy" = type { float, i64 }
%"class.std::unordered_map" = type { %"class.std::_Hashtable" }
%"class.std::_Hashtable" = type { ptr, i64, %"struct.std::__detail::_Hash_node_base", i64, %"struct.std::__detail::_Prime_rehash_policy", ptr }
%"class.nla::nex_creator::mul_factory" = type { ptr, %class.rational, %class.vector.127 }
%class.vector.127 = type { ptr }
%"struct.nla::basics" = type { %"struct.nla::common" }
%"class.nla::order" = type { %"struct.nla::common" }
%"class.nla::monotone" = type { %"struct.nla::common" }
%"class.nla::powers" = type { ptr }
%"class.nla::divisions" = type { ptr, %class.vector.128, %class.vector.128, %class.vector.128 }
%class.vector.128 = type { ptr }
%"class.nla::intervals" = type { %class.dep_intervals, ptr }
%class.dep_intervals = type { ptr, %class.mpq_manager, %"class.dep_intervals::im_config", %class.interval_manager }
%class.mpq_manager = type { %class.mpz_manager, %class.mpz, %class.mpz, %class.mpz, %class.mpz, %class.mpq, %class.mpq }
%class.mpz_manager = type { %class.small_object_allocator, %"class.std::recursive_mutex", %class.mpn_manager, i32, %class.mpz, %class.mpz }
%class.small_object_allocator = type { [32 x ptr], [32 x ptr], i64 }
%"class.std::recursive_mutex" = type { %"class.std::__recursive_mutex_base" }
%"class.std::__recursive_mutex_base" = type { %union.pthread_mutex_t }
%union.pthread_mutex_t = type { %struct.__pthread_mutex_s }
%struct.__pthread_mutex_s = type { i32, i32, i32, i32, i32, i16, i16, %struct.__pthread_internal_list }
%struct.__pthread_internal_list = type { ptr, ptr }
%class.mpn_manager = type { i8 }
%"class.dep_intervals::im_config" = type { ptr, ptr }
%class.interval_manager = type { ptr, %"class.dep_intervals::im_config", %class.mpq, %class.mpq, %class.mpq, %class.mpq, %class.mpq, %class.mpq, %class.mpq, %class.mpq, %class.mpq, i32, %"struct.dep_intervals::im_config::interval", %"struct.dep_intervals::im_config::interval", %"struct.dep_intervals::im_config::interval", %"struct.dep_intervals::im_config::interval" }
%"struct.dep_intervals::im_config::interval" = type { %class.mpq, %class.mpq, i8, ptr, ptr }
%"class.nla::monomial_bounds" = type { %"struct.nla::common", ptr }
%"class.nla::horner" = type <{ %"struct.nla::common", %"class.nla::nex_creator::sum_factory", i32, [4 x i8] }>
%"class.nla::nex_creator::sum_factory" = type { ptr, %class.ptr_vector.111 }
%"class.nla::grobner" = type { %"struct.nla::common", %"class.dd::pdd_manager", %"class.dd::solver", ptr, %class.indexed_uint_set, i32, i32, i32, i8, %"class.std::unordered_map.151" }
%"class.dd::pdd_manager" = type { %class.svector.129, %class.vector.6, %class.ptr_hashtable, %class.hashtable, %class.hashtable.135, %class.map.139, %class.svector, ptr, %class.svector, %class.svector, %class.svector, %class.svector, %class.small_object_allocator, %class.svector, i32, %class.svector, %class.svector, %class.svector.143, i8, i8, i32, i32, %class.svector, %class.svector, %class.rational, %class.rational, i32, %class.rational, %class.svector, i32, %class.svector, %class.svector, %class.rational, %class.rational }
%class.svector.129 = type { %class.vector.130 }
%class.vector.130 = type { ptr }
%class.vector.6 = type { ptr }
%class.ptr_hashtable = type { %class.core_hashtable.base.132, [4 x i8] }
%class.core_hashtable.base.132 = type <{ ptr, i32, i32, i32 }>
%class.hashtable = type { %class.core_hashtable.base.134, [4 x i8] }
%class.core_hashtable.base.134 = type <{ ptr, i32, i32, i32 }>
%class.hashtable.135 = type { %class.core_hashtable.base.137, [4 x i8] }
%class.core_hashtable.base.137 = type <{ ptr, i32, i32, i32 }>
%class.map.139 = type { %class.table2map.140 }
%class.table2map.140 = type { %class.core_hashtable.141 }
%class.core_hashtable.141 = type <{ ptr, i32, i32, i32, [4 x i8] }>
%class.svector.143 = type { %class.vector.144 }
%class.vector.144 = type { ptr }
%"class.dd::solver" = type { ptr, ptr, ptr, %"class.dd::solver::stats", %"struct.dd::solver::config", %"class.std::function.145", %class.ptr_vector.148, %class.ptr_vector.148, %class.ptr_vector.148, %class.vector.150, %class.ptr_vector.148, ptr, i8, i32, %class.svector, %class.svector }
%"class.dd::solver::stats" = type <{ i32, [4 x i8], double, i32, i32, i32, [4 x i8] }>
%"struct.dd::solver::config" = type { i32, i32, i32, i32, i32, i32, i8, i32, i32, i32, i32 }
%"class.std::function.145" = type { %"class.std::_Function_base", ptr }
%class.vector.150 = type { ptr }
%class.ptr_vector.148 = type { %class.vector.149 }
%class.vector.149 = type { ptr }
%"class.std::unordered_map.151" = type { %"class.std::_Hashtable.152" }
%"class.std::_Hashtable.152" = type { ptr, i64, %"struct.std::__detail::_Hash_node_base", i64, %"struct.std::__detail::_Prime_rehash_policy", ptr }
%"class.nla::emonics" = type { %class.trail_stack, %class.union_find.169, %class.svector, ptr, %class.vector.170, %class.svector, i32, %class.svector.171, %"struct.nla::emonics::hash_canonical", %"struct.nla::emonics::eq_canonical", %class.map.173 }
%class.union_find.169 = type { ptr, ptr, %class.svector, %class.svector, %class.svector, %"class.union_find<nla::emonics>::mk_var_trail" }
%"class.union_find<nla::emonics>::mk_var_trail" = type { %class.trail, ptr }
%class.vector.170 = type { ptr }
%class.svector.171 = type { %class.vector.172 }
%class.vector.172 = type { ptr }
%"struct.nla::emonics::hash_canonical" = type { ptr }
%"struct.nla::emonics::eq_canonical" = type { ptr }
%class.map.173 = type { %class.table2map.174 }
%class.table2map.174 = type { %class.core_hashtable.175 }
%class.core_hashtable.175 = type <{ %"struct.table2map<default_map_entry<unsigned int, svector<unsigned int>>, nla::emonics::hash_canonical, nla::emonics::eq_canonical>::entry_hash_proc", %"struct.table2map<default_map_entry<unsigned int, svector<unsigned int>>, nla::emonics::hash_canonical, nla::emonics::eq_canonical>::entry_eq_proc", ptr, i32, i32, i32, [4 x i8] }>
%"struct.table2map<default_map_entry<unsigned int, svector<unsigned int>>, nla::emonics::hash_canonical, nla::emonics::eq_canonical>::entry_hash_proc" = type { %"struct.nla::emonics::hash_canonical" }
%"struct.table2map<default_map_entry<unsigned int, svector<unsigned int>>, nla::emonics::hash_canonical, nla::emonics::eq_canonical>::entry_eq_proc" = type { %"struct.nla::emonics::eq_canonical" }
%class.reslimit = type { %"struct.std::atomic", i8, i64, i64, %class.svector.92, %class.ptr_vector.94 }
%"struct.std::atomic" = type { %"struct.std::__atomic_base" }
%"struct.std::__atomic_base" = type { i32 }
%class.svector.92 = type { %class.vector.93 }
%class.vector.93 = type { ptr }
%class.ptr_vector.94 = type { %class.vector.95 }
%class.vector.95 = type { ptr }

; Function Attrs: mustprogress nounwind uwtable
define linkonce_odr hidden noundef i32 @_ZNK16indexed_uint_set4sizeEv(ptr noundef nonnull align 8 dereferenceable(24) %this) #4 comdat align 2 {
entry:
  %this.addr = alloca ptr, align 8
  store ptr %this, ptr %this.addr, align 8
  %this1 = load ptr, ptr %this.addr, align 8
  %m_size = getelementptr inbounds %class.indexed_uint_set, ptr %this1, i32 0, i32 0
  %0 = load i32, ptr %m_size, align 8
  ret i32 %0
}

; Function Attrs: mustprogress uwtable
define linkonce_odr hidden noundef zeroext i1 @_ZN3nra6solver3imp10need_checkEv(ptr noundef nonnull align 8 dereferenceable(160) %this) #5 comdat align 2 {
entry:
  %this.addr = alloca ptr, align 8
  store ptr %this, ptr %this.addr, align 8
  %this1 = load ptr, ptr %this.addr, align 8
  %m_nla_core = getelementptr inbounds %"struct.nra::solver::imp", ptr %this1, i32 0, i32 9
  %0 = load ptr, ptr %m_nla_core, align 8
  %m_to_refine = getelementptr inbounds %"class.nla::core", ptr %0, i32 0, i32 11
  %call = call noundef i32 @_ZNK16indexed_uint_set4sizeEv(ptr noundef nonnull align 8 dereferenceable(24) %m_to_refine)
  %cmp = icmp ne i32 %call, 0
  ret i1 %cmp
}

; Function Attrs: mustprogress uwtable
define hidden noundef zeroext i1 @_ZN3nra6solver10need_checkEv(ptr noundef nonnull align 8 dereferenceable(8) %this) #5 align 2 {
entry:
  %this.addr = alloca ptr, align 8
  store ptr %this, ptr %this.addr, align 8
  %this1 = load ptr, ptr %this.addr, align 8
  %m_imp = getelementptr inbounds %"class.nra::solver", ptr %this1, i32 0, i32 0
  %0 = load ptr, ptr %m_imp, align 8
  %call = call noundef zeroext i1 @_ZN3nra6solver3imp10need_checkEv(ptr noundef nonnull align 8 dereferenceable(160) %0)
  ret i1 %call
}