; Function Attrs: mustprogress nofree norecurse nosync nounwind willreturn memory(read, inaccessiblemem: none) uwtable
define hidden noundef zeroext i1 @_ZN3nra6solver10need_checkEv(ptr nocapture noundef nonnull readonly align 8 dereferenceable(8) %this) local_unnamed_addr #6 align 2 {
entry:
  %0 = load ptr, ptr %this, align 8
  %m_nla_core.i = getelementptr inbounds i8, ptr %0, i64 104
  %1 = load ptr, ptr %m_nla_core.i, align 8
  %m_to_refine.i = getelementptr inbounds i8, ptr %1, i64 288
  %2 = load i32, ptr %m_to_refine.i, align 8
  %cmp.i = icmp ne i32 %2, 0
  ret i1 %cmp.i
}